target datalayout = "e-m:e-p270:32:32-p271:32:32-p272:64:64-i64:64-i128:128-f80:128-n8:16:32:64-S128"
target triple = "x86_64-pc-linux-gnu"

%struct.Abc_Ntk_t_ = type { i32, i32, ptr, ptr, ptr, ptr, ptr, ptr, ptr, ptr, ptr, ptr, ptr, [11 x i32], i32, i32, i32, i32, ptr, i32, ptr, ptr, i32, i32, i32, double, i32, %struct.Vec_Int_t_, ptr, ptr, ptr, ptr, ptr, float, i32, ptr, ptr, ptr, ptr, ptr, ptr, ptr, ptr, ptr, ptr, ptr, ptr, ptr, ptr, ptr, ptr, ptr, ptr, ptr, ptr, ptr, ptr }
%struct.Vec_Int_t_ = type { i32, i32, ptr }
%struct.Abc_Obj_t_ = type { ptr, ptr, i32, i32, %struct.Vec_Int_t_, %struct.Vec_Int_t_, %union.anon, %union.anon.0 }
%union.anon = type { ptr }
%union.anon.0 = type { ptr }
%struct.Vec_Ptr_t_ = type { i32, i32, ptr }

@.str = private unnamed_addr constant [47 x i8] c"Abc_NtkBalance: The network check has failed.\0A\00", align 1
@.str.2 = private unnamed_addr constant [61 x i8] c"The number of nodes on the critical paths = %6d  (%5.2f %%)\0A\00", align 1

; Function Attrs: inlinehint nounwind uwtable
define internal ptr @Vec_PtrEntry(ptr noundef %0, i32 noundef %1) #3 {
  %3 = alloca ptr, align 8
  %4 = alloca i32, align 4
  store ptr %0, ptr %3, align 8, !tbaa !43
  store i32 %1, ptr %4, align 4, !tbaa !8
  %5 = load ptr, ptr %3, align 8, !tbaa !43
  %6 = getelementptr inbounds nuw %struct.Vec_Ptr_t_, ptr %5, i32 0, i32 2
  %7 = load ptr, ptr %6, align 8, !tbaa !47
  %8 = load i32, ptr %4, align 4, !tbaa !8
  %9 = sext i32 %8 to i64
  %10 = getelementptr inbounds ptr, ptr %7, i64 %9
  %11 = load ptr, ptr %10, align 8, !tbaa !48
  ret ptr %11
}

; Function Attrs: inlinehint nounwind uwtable
define internal i32 @Abc_NtkNodeNum(ptr noundef %0) #3 {
  %2 = alloca ptr, align 8
  store ptr %0, ptr %2, align 8, !tbaa !3
  %3 = load ptr, ptr %2, align 8, !tbaa !3
  %4 = getelementptr inbounds nuw %struct.Abc_Ntk_t_, ptr %3, i32 0, i32 13
  %5 = getelementptr inbounds [11 x i32], ptr %4, i64 0, i64 7
  %6 = load i32, ptr %5, align 4, !tbaa !8
  ret i32 %6
}

; Function Attrs: inlinehint nounwind uwtable
define internal i32 @Abc_ObjIsNode(ptr noundef %0) #3 {
  %2 = alloca ptr, align 8
  store ptr %0, ptr %2, align 8, !tbaa !28
  %3 = load ptr, ptr %2, align 8, !tbaa !28
  %4 = getelementptr inbounds nuw %struct.Abc_Obj_t_, ptr %3, i32 0, i32 3
  %5 = load i32, ptr %4, align 4
  %6 = and i32 %5, 15
  %7 = icmp eq i32 %6, 7
  %8 = zext i1 %7 to i32
  ret i32 %8
}

; Function Attrs: inlinehint nounwind uwtable
define internal ptr @Abc_NtkObj(ptr noundef %0, i32 noundef %1) #3 {
  %3 = alloca ptr, align 8
  %4 = alloca i32, align 4
  store ptr %0, ptr %3, align 8, !tbaa !3
  store i32 %1, ptr %4, align 4, !tbaa !8
  %5 = load ptr, ptr %3, align 8, !tbaa !3
  %6 = getelementptr inbounds nuw %struct.Abc_Ntk_t_, ptr %5, i32 0, i32 5
  %7 = load ptr, ptr %6, align 8, !tbaa !27
  %8 = load i32, ptr %4, align 4, !tbaa !8
  %9 = call ptr @Vec_PtrEntry(ptr noundef %7, i32 noundef %8)
  ret ptr %9
}

; Function Attrs: inlinehint nounwind uwtable
define internal i32 @Vec_PtrSize(ptr noundef %0) #3 {
  %2 = alloca ptr, align 8
  store ptr %0, ptr %2, align 8, !tbaa !43
  %3 = load ptr, ptr %2, align 8, !tbaa !43
  %4 = getelementptr inbounds nuw %struct.Vec_Ptr_t_, ptr %3, i32 0, i32 1
  %5 = load i32, ptr %4, align 4, !tbaa !45
  ret i32 %5
}

; Function Attrs: nounwind uwtable
define internal void @Abc_NtkMarkCriticalNodes(ptr noundef %0) #0 {
  %2 = alloca ptr, align 8
  %3 = alloca ptr, align 8
  %4 = alloca i32, align 4
  %5 = alloca i32, align 4
  store ptr %0, ptr %2, align 8, !tbaa !3
  call void @llvm.lifetime.start.p0(i64 8, ptr %3) #7
  call void @llvm.lifetime.start.p0(i64 4, ptr %4) #7
  call void @llvm.lifetime.start.p0(i64 4, ptr %5) #7
  store i32 0, ptr %5, align 4, !tbaa !8
  store i32 0, ptr %4, align 4, !tbaa !8
  br label %6

6:                                                ; preds = %46, %1
  %7 = load i32, ptr %4, align 4, !tbaa !8
  %8 = load ptr, ptr %2, align 8, !tbaa !3
  %9 = getelementptr inbounds nuw %struct.Abc_Ntk_t_, ptr %8, i32 0, i32 5
  %10 = load ptr, ptr %9, align 8, !tbaa !27
  %11 = call i32 @Vec_PtrSize(ptr noundef %10)
  %12 = icmp slt i32 %7, %11
  br i1 %12, label %13, label %17

13:                                               ; preds = %6
  %14 = load ptr, ptr %2, align 8, !tbaa !3
  %15 = load i32, ptr %4, align 4, !tbaa !8
  %16 = call ptr @Abc_NtkObj(ptr noundef %14, i32 noundef %15)
  store ptr %16, ptr %3, align 8, !tbaa !28
  br label %17

17:                                               ; preds = %13, %6
  %18 = phi i1 [ false, %6 ], [ true, %13 ]
  br i1 %18, label %19, label %49

19:                                               ; preds = %17
  %20 = load ptr, ptr %3, align 8, !tbaa !28
  %21 = icmp eq ptr %20, null
  br i1 %21, label %26, label %22

22:                                               ; preds = %19
  %23 = load ptr, ptr %3, align 8, !tbaa !28
  %24 = call i32 @Abc_ObjIsNode(ptr noundef %23)
  %25 = icmp ne i32 %24, 0
  br i1 %25, label %27, label %26

26:                                               ; preds = %22, %19
  br label %45

27:                                               ; preds = %22
  %28 = load ptr, ptr %3, align 8, !tbaa !28
  %29 = call i32 @Abc_ObjRequiredLevel(ptr noundef %28)
  %30 = load ptr, ptr %3, align 8, !tbaa !28
  %31 = getelementptr inbounds nuw %struct.Abc_Obj_t_, ptr %30, i32 0, i32 3
  %32 = load i32, ptr %31, align 4
  %33 = lshr i32 %32, 12
  %34 = sub nsw i32 %29, %33
  %35 = icmp sle i32 %34, 1
  br i1 %35, label %36, label %44

36:                                               ; preds = %27
  %37 = load ptr, ptr %3, align 8, !tbaa !28
  %38 = getelementptr inbounds nuw %struct.Abc_Obj_t_, ptr %37, i32 0, i32 3
  %39 = load i32, ptr %38, align 4
  %40 = and i32 %39, -17
  %41 = or i32 %40, 16
  store i32 %41, ptr %38, align 4
  %42 = load i32, ptr %5, align 4, !tbaa !8
  %43 = add nsw i32 %42, 1
  store i32 %43, ptr %5, align 4, !tbaa !8
  br label %44

44:                                               ; preds = %36, %27
  br label %45

45:                                               ; preds = %44, %26
  br label %46

46:                                               ; preds = %45
  %47 = load i32, ptr %4, align 4, !tbaa !8
  %48 = add nsw i32 %47, 1
  store i32 %48, ptr %4, align 4, !tbaa !8
  br label %6, !llvm.loop !30

49:                                               ; preds = %17
  %50 = load i32, ptr %5, align 4, !tbaa !8
  %51 = load i32, ptr %5, align 4, !tbaa !8
  %52 = sitofp i32 %51 to double
  %53 = fmul double 1.000000e+02, %52
  %54 = load ptr, ptr %2, align 8, !tbaa !3
  %55 = call i32 @Abc_NtkNodeNum(ptr noundef %54)
  %56 = sitofp i32 %55 to double
  %57 = fdiv double %53, %56
  %58 = call i32 (ptr, ...) @printf(ptr noundef @.str.2, i32 noundef %50, double noundef %57)
  call void @llvm.lifetime.end.p0(i64 4, ptr %5) #7
  call void @llvm.lifetime.end.p0(i64 4, ptr %4) #7
  call void @llvm.lifetime.end.p0(i64 8, ptr %3) #7
  ret void
}

; Function Attrs: nounwind uwtable
define ptr @Abc_NtkBalance(ptr noundef %0, i32 noundef %1, i32 noundef %2, i32 noundef %3) #0 {
  %5 = alloca ptr, align 8
  %6 = alloca ptr, align 8
  %7 = alloca i32, align 4
  %8 = alloca i32, align 4
  %9 = alloca i32, align 4
  %10 = alloca ptr, align 8
  %11 = alloca i32, align 4
  store ptr %0, ptr %6, align 8, !tbaa !3
  store i32 %1, ptr %7, align 4, !tbaa !8
  store i32 %2, ptr %8, align 4, !tbaa !8
  store i32 %3, ptr %9, align 4, !tbaa !8
  call void @llvm.lifetime.start.p0(i64 8, ptr %10) #7
  %12 = load i32, ptr %8, align 4, !tbaa !8
  %13 = icmp ne i32 %12, 0
  br i1 %13, label %14, label %17

14:                                               ; preds = %4
  %15 = load ptr, ptr %6, align 8, !tbaa !3
  call void @Abc_NtkStartReverseLevels(ptr noundef %15, i32 noundef 0)
  %16 = load ptr, ptr %6, align 8, !tbaa !3
  call void @Abc_NtkMarkCriticalNodes(ptr noundef %16)
  br label %17

17:                                               ; preds = %14, %4
  %18 = load ptr, ptr %6, align 8, !tbaa !3
  %19 = call ptr @Abc_NtkStartFrom(ptr noundef %18, i32 noundef 3, i32 noundef 3)
  store ptr %19, ptr %10, align 8, !tbaa !3
  %20 = load ptr, ptr %6, align 8, !tbaa !3
  %21 = load ptr, ptr %10, align 8, !tbaa !3
  %22 = load i32, ptr %7, align 4, !tbaa !8
  %23 = load i32, ptr %8, align 4, !tbaa !8
  %24 = load i32, ptr %9, align 4, !tbaa !8
  call void @Abc_NtkBalancePerform(ptr noundef %20, ptr noundef %21, i32 noundef %22, i32 noundef %23, i32 noundef %24)
  %25 = load ptr, ptr %6, align 8, !tbaa !3
  %26 = load ptr, ptr %10, align 8, !tbaa !3
  call void @Abc_NtkFinalize(ptr noundef %25, ptr noundef %26)
  %27 = load ptr, ptr %10, align 8, !tbaa !3
  %28 = getelementptr inbounds nuw %struct.Abc_Ntk_t_, ptr %27, i32 0, i32 30
  %29 = load ptr, ptr %28, align 8, !tbaa !10
  %30 = call i32 @Abc_AigCleanup(ptr noundef %29)
  %31 = load i32, ptr %8, align 4, !tbaa !8
  %32 = icmp ne i32 %31, 0
  br i1 %32, label %33, label %36

33:                                               ; preds = %17
  %34 = load ptr, ptr %6, align 8, !tbaa !3
  call void @Abc_NtkStopReverseLevels(ptr noundef %34)
  %35 = load ptr, ptr %6, align 8, !tbaa !3
  call void @Abc_NtkCleanMarkA(ptr noundef %35)
  br label %36

36:                                               ; preds = %33, %17
  %37 = load ptr, ptr %6, align 8, !tbaa !3
  %38 = getelementptr inbounds nuw %struct.Abc_Ntk_t_, ptr %37, i32 0, i32 40
  %39 = load ptr, ptr %38, align 8, !tbaa !26
  %40 = icmp ne ptr %39, null
  br i1 %40, label %41, label %48

41:                                               ; preds = %36
  %42 = load ptr, ptr %6, align 8, !tbaa !3
  %43 = getelementptr inbounds nuw %struct.Abc_Ntk_t_, ptr %42, i32 0, i32 40
  %44 = load ptr, ptr %43, align 8, !tbaa !26
  %45 = call ptr @Abc_NtkDup(ptr noundef %44)
  %46 = load ptr, ptr %10, align 8, !tbaa !3
  %47 = getelementptr inbounds nuw %struct.Abc_Ntk_t_, ptr %46, i32 0, i32 40
  store ptr %45, ptr %47, align 8, !tbaa !26
  br label %48

48:                                               ; preds = %41, %36
  %49 = load ptr, ptr %10, align 8, !tbaa !3
  %50 = call i32 @Abc_NtkCheck(ptr noundef %49)
  %51 = icmp ne i32 %50, 0
  br i1 %51, label %55, label %52

52:                                               ; preds = %48
  %53 = call i32 (ptr, ...) @printf(ptr noundef @.str)
  %54 = load ptr, ptr %10, align 8, !tbaa !3
  call void @Abc_NtkDelete(ptr noundef %54)
  store ptr null, ptr %5, align 8
  store i32 1, ptr %11, align 4
  br label %57

55:                                               ; preds = %48
  %56 = load ptr, ptr %10, align 8, !tbaa !3
  store ptr %56, ptr %5, align 8
  store i32 1, ptr %11, align 4
  br label %57

57:                                               ; preds = %55, %52
  call void @llvm.lifetime.end.p0(i64 8, ptr %10) #7
  %58 = load ptr, ptr %5, align 8
  ret ptr %58
}